target datalayout = "e-m:e-p270:32:32-p271:32:32-p272:64:64-i64:64-i128:128-f80:128-n8:16:32:64-S128"
target triple = "x86_64-pc-linux-gnu"

@H5FD_ONION_g = internal global i64 0, align 8

; Function Attrs: nounwind uwtable
define i64 @H5FD_onion_init() #0 {
  %1 = alloca i64, align 8
  store i64 -1, ptr %1, align 8
  %2 = load i64, ptr @H5FD_ONION_g, align 8
  %3 = call i32 @H5I_get_type(i64 noundef %2)
  %4 = icmp ne i32 8, %3
  br i1 %4, label %5, label %7

5:                                                ; preds = %0
  %6 = call i64 @H5FD_register(ptr noundef @H5FD_onion_g, i64 noundef 336, i1 noundef zeroext false)
  store i64 %6, ptr @H5FD_ONION_g, align 8
  br label %7

7:                                                ; preds = %5, %0
  %8 = load i64, ptr @H5FD_ONION_g, align 8
  store i64 %8, ptr %1, align 8
  %9 = load i64, ptr %1, align 8
  ret i64 %9
}