; Function Attrs: nounwind uwtable
define i64 @H5FD_onion_init() #0 {
  %1 = load i64, ptr @H5FD_ONION_g, align 8
  %2 = tail call i32 @H5I_get_type(i64 noundef %1) #18
  %.not = icmp eq i32 %2, 8
  br i1 %.not, label %._crit_edge, label %3

._crit_edge:                                      ; preds = %0
  %.pre = load i64, ptr @H5FD_ONION_g, align 8
  br label %5

3:                                                ; preds = %0
  %4 = tail call i64 @H5FD_register(ptr noundef nonnull @H5FD_onion_g, i64 noundef 336, i1 noundef zeroext false) #18
  store i64 %4, ptr @H5FD_ONION_g, align 8
  br label %5

5:                                                ; preds = %._crit_edge, %3
  %6 = phi i64 [ %.pre, %._crit_edge ], [ %4, %3 ]
  ret i64 %6
}